target datalayout = "e-m:e-p270:32:32-p271:32:32-p272:64:64-i64:64-i128:128-f80:128-n8:16:32:64-S128"
target triple = "x86_64-pc-linux-gnu"

%struct.darktable_t = type { %struct.dt_codepath_t, i32, i32, ptr, ptr, ptr, ptr, ptr, ptr, ptr, ptr, ptr, ptr, ptr, ptr, ptr, ptr, ptr, ptr, ptr, ptr, ptr, ptr, ptr, ptr, ptr, ptr, ptr, ptr, ptr, [64 x %struct.dt_pthread_mutex_t], %struct.dt_pthread_mutex_t, %struct.dt_pthread_mutex_t, %struct.dt_pthread_mutex_t, %struct.dt_pthread_mutex_t, %struct.dt_pthread_mutex_t, ptr, ptr, ptr, ptr, ptr, ptr, ptr, ptr, ptr, ptr, ptr, ptr, ptr, %struct.dt_lua_state_t, ptr, double, ptr, i32, [47 x i32], i32, i32, ptr, ptr, %struct.dt_sys_resources_t, %struct.dt_backthumb_t, %struct.dt_gimp_t }
%struct.dt_codepath_t = type { i8, [3 x i8] }
%struct.dt_pthread_mutex_t = type { %union.pthread_mutex_t }
%union.pthread_mutex_t = type { %struct.__pthread_mutex_s }
%struct.__pthread_mutex_s = type { i32, i32, i32, i32, i32, i16, i16, %struct.__pthread_internal_list }
%struct.__pthread_internal_list = type { ptr, ptr }
%struct.dt_lua_state_t = type { i32 }
%struct.dt_sys_resources_t = type { i64, i64, ptr, ptr, i32 }
%struct.dt_backthumb_t = type { double, double, i32, i32, i32, i32 }
%struct.dt_gimp_t = type { i32, ptr, ptr, i32, i32 }
%struct.dt_control_image_enumerator_t = type { ptr, i32, ptr, i32 }
%struct._GList = type { ptr, ptr, ptr }
%struct.timeval = type { i64, i64 }

@darktable = external global %struct.darktable_t, align 8
@.str.84 = private unnamed_addr constant [19 x i8] c"set %d color image\00", align 1
@.str.85 = private unnamed_addr constant [24 x i8] c"setting %d color images\00", align 1
@.str.86 = private unnamed_addr constant [24 x i8] c"set %d monochrome image\00", align 1
@.str.87 = private unnamed_addr constant [29 x i8] c"setting %d monochrome images\00", align 1
@.str.88 = private unnamed_addr constant [60 x i8] c"[dt_control_monochrome_images_job_run] got illegal imgid %i\00", align 1

; Function Attrs: inlinehint nounwind uwtable
define internal double @dt_get_wtime() #5 {
  %1 = alloca %struct.timeval, align 8
  call void @llvm.lifetime.start.p0(i64 16, ptr %1) #14
  %2 = call i32 @gettimeofday(ptr noundef %1, ptr noundef null) #14
  %3 = getelementptr inbounds nuw %struct.timeval, ptr %1, i32 0, i32 0
  %4 = load i64, ptr %3, align 8, !tbaa !263
  %5 = sub nsw i64 %4, 1290608000
  %6 = sitofp i64 %5 to double
  %7 = getelementptr inbounds nuw %struct.timeval, ptr %1, i32 0, i32 1
  %8 = load i64, ptr %7, align 8, !tbaa !265
  %9 = sitofp i64 %8 to double
  %10 = fmul reassoc nsz arcp contract afn double 0x3EB0C6F7A0B5ED8D, %9
  %11 = fadd reassoc nsz arcp contract afn double %6, %10
  call void @llvm.lifetime.end.p0(i64 16, ptr %1) #14
  ret double %11
}

; Function Attrs: nounwind uwtable
define internal void @_update_progress(ptr noundef %0, double noundef %1, ptr noundef %2) #0 {
  %4 = alloca ptr, align 8
  %5 = alloca double, align 8
  %6 = alloca ptr, align 8
  %7 = alloca double, align 8
  store ptr %0, ptr %4, align 8, !tbaa !51
  store double %1, ptr %5, align 8, !tbaa !61
  store ptr %2, ptr %6, align 8, !tbaa !266
  call void @llvm.lifetime.start.p0(i64 8, ptr %7) #14
  %8 = call reassoc nsz arcp contract afn double @dt_get_wtime()
  store double %8, ptr %7, align 8, !tbaa !61
  %9 = load double, ptr %7, align 8, !tbaa !61
  %10 = load ptr, ptr %6, align 8, !tbaa !266
  %11 = load double, ptr %10, align 8, !tbaa !61
  %12 = fadd reassoc nsz arcp contract afn double %11, 5.000000e-01
  %13 = fcmp reassoc nsz arcp contract afn ogt double %9, %12
  br i1 %13, label %14, label %31

14:                                               ; preds = %3
  %15 = load ptr, ptr %4, align 8, !tbaa !51
  %16 = load double, ptr %5, align 8, !tbaa !61
  %17 = fcmp reassoc nsz arcp contract afn ogt double %16, 1.000000e+00
  br i1 %17, label %18, label %19

18:                                               ; preds = %14
  br label %27

19:                                               ; preds = %14
  %20 = load double, ptr %5, align 8, !tbaa !61
  %21 = fcmp reassoc nsz arcp contract afn olt double %20, 0.000000e+00
  br i1 %21, label %22, label %23

22:                                               ; preds = %19
  br label %25

23:                                               ; preds = %19
  %24 = load double, ptr %5, align 8, !tbaa !61
  br label %25

25:                                               ; preds = %23, %22
  %26 = phi reassoc nsz arcp contract afn double [ 0.000000e+00, %22 ], [ %24, %23 ]
  br label %27

27:                                               ; preds = %25, %18
  %28 = phi reassoc nsz arcp contract afn double [ 1.000000e+00, %18 ], [ %26, %25 ]
  call void @dt_control_job_set_progress(ptr noundef %15, double noundef %28)
  %29 = load double, ptr %7, align 8, !tbaa !61
  %30 = load ptr, ptr %6, align 8, !tbaa !266
  store double %29, ptr %30, align 8, !tbaa !61
  br label %31

31:                                               ; preds = %27, %3
  call void @llvm.lifetime.end.p0(i64 8, ptr %7) #14
  ret void
}

; Function Attrs: inlinehint nounwind uwtable
define internal i32 @_job_cancelled(ptr noundef %0) #5 {
  %2 = alloca ptr, align 8
  store ptr %0, ptr %2, align 8, !tbaa !51
  %3 = load ptr, ptr %2, align 8, !tbaa !51
  %4 = call i32 @dt_control_job_get_state(ptr noundef %3)
  %5 = icmp eq i32 %4, 4
  %6 = zext i1 %5 to i32
  ret i32 %6
}

; Function Attrs: nounwind uwtable
define internal i32 @dt_control_monochrome_images_job_run(ptr noundef %0) #0 {
  %2 = alloca ptr, align 8
  %3 = alloca ptr, align 8
  %4 = alloca i32, align 4
  %5 = alloca ptr, align 8
  %6 = alloca i32, align 4
  %7 = alloca [512 x i8], align 16
  %8 = alloca double, align 8
  %9 = alloca double, align 8
  %10 = alloca i32, align 4
  store ptr %0, ptr %2, align 8, !tbaa !51
  call void @llvm.lifetime.start.p0(i64 8, ptr %3) #14
  %11 = load ptr, ptr %2, align 8, !tbaa !51
  %12 = call ptr @dt_control_job_get_params(ptr noundef %11)
  store ptr %12, ptr %3, align 8, !tbaa !53
  call void @llvm.lifetime.start.p0(i64 4, ptr %4) #14
  %13 = load ptr, ptr %3, align 8, !tbaa !53
  %14 = getelementptr inbounds nuw %struct.dt_control_image_enumerator_t, ptr %13, i32 0, i32 1
  %15 = load i32, ptr %14, align 8, !tbaa !58
  store i32 %15, ptr %4, align 4, !tbaa !50
  call void @llvm.lifetime.start.p0(i64 8, ptr %5) #14
  %16 = load ptr, ptr %3, align 8, !tbaa !53
  %17 = getelementptr inbounds nuw %struct.dt_control_image_enumerator_t, ptr %16, i32 0, i32 0
  %18 = load ptr, ptr %17, align 8, !tbaa !57
  store ptr %18, ptr %5, align 8, !tbaa !60
  call void @llvm.lifetime.start.p0(i64 4, ptr %6) #14
  %19 = load ptr, ptr %5, align 8, !tbaa !60
  %20 = call i32 @g_list_length(ptr noundef %19)
  store i32 %20, ptr %6, align 4, !tbaa !50
  call void @llvm.lifetime.start.p0(i64 512, ptr %7) #14
  call void @llvm.memset.p0.i64(ptr align 16 %7, i8 0, i64 512, i1 false)
  call void @llvm.lifetime.start.p0(i64 8, ptr %8) #14
  store double 0.000000e+00, ptr %8, align 8, !tbaa !61
  %21 = load ptr, ptr getelementptr inbounds nuw (%struct.darktable_t, ptr @darktable, i32 0, i32 27), align 8, !tbaa !92
  call void @dt_undo_start_group(ptr noundef %21, i32 noundef 256)
  %22 = load i32, ptr %4, align 4, !tbaa !50
  %23 = icmp eq i32 %22, 0
  br i1 %23, label %24, label %31

24:                                               ; preds = %1
  %25 = getelementptr inbounds [512 x i8], ptr %7, i64 0, i64 0
  %26 = load i32, ptr %6, align 4, !tbaa !50
  %27 = zext i32 %26 to i64
  %28 = call ptr @dcngettext(ptr noundef null, ptr noundef @.str.84, ptr noundef @.str.85, i64 noundef %27, i32 noundef 5) #14
  %29 = load i32, ptr %6, align 4, !tbaa !50
  %30 = call i32 (ptr, i64, ptr, ...) @snprintf(ptr noundef %25, i64 noundef 512, ptr noundef %28, i32 noundef %29) #14
  br label %38

31:                                               ; preds = %1
  %32 = getelementptr inbounds [512 x i8], ptr %7, i64 0, i64 0
  %33 = load i32, ptr %6, align 4, !tbaa !50
  %34 = zext i32 %33 to i64
  %35 = call ptr @dcngettext(ptr noundef null, ptr noundef @.str.86, ptr noundef @.str.87, i64 noundef %34, i32 noundef 5) #14
  %36 = load i32, ptr %6, align 4, !tbaa !50
  %37 = call i32 (ptr, i64, ptr, ...) @snprintf(ptr noundef %32, i64 noundef 512, ptr noundef %35, i32 noundef %36) #14
  br label %38

38:                                               ; preds = %31, %24
  %39 = load ptr, ptr %2, align 8, !tbaa !51
  %40 = getelementptr inbounds [512 x i8], ptr %7, i64 0, i64 0
  call void @dt_control_job_set_progress_message(ptr noundef %39, ptr noundef %40)
  call void @llvm.lifetime.start.p0(i64 8, ptr %9) #14
  store double 0.000000e+00, ptr %9, align 8, !tbaa !61
  br label %41

41:                                               ; preds = %91, %38
  %42 = load ptr, ptr %5, align 8, !tbaa !60
  %43 = icmp ne ptr %42, null
  br i1 %43, label %44, label %49

44:                                               ; preds = %41
  %45 = load ptr, ptr %2, align 8, !tbaa !51
  %46 = call i32 @_job_cancelled(ptr noundef %45)
  %47 = icmp ne i32 %46, 0
  %48 = xor i1 %47, true
  br label %49

49:                                               ; preds = %44, %41
  %50 = phi i1 [ false, %41 ], [ %48, %44 ]
  br i1 %50, label %51, label %93

51:                                               ; preds = %49
  call void @llvm.lifetime.start.p0(i64 4, ptr %10) #14
  %52 = load ptr, ptr %5, align 8, !tbaa !60
  %53 = getelementptr inbounds nuw %struct._GList, ptr %52, i32 0, i32 0
  %54 = load ptr, ptr %53, align 8, !tbaa !70
  %55 = ptrtoint ptr %54 to i64
  %56 = trunc i64 %55 to i32
  store i32 %56, ptr %10, align 4, !tbaa !50
  %57 = load i32, ptr %10, align 4, !tbaa !50
  %58 = icmp sgt i32 %57, 0
  br i1 %58, label %59, label %64

59:                                               ; preds = %51
  %60 = load i32, ptr %10, align 4, !tbaa !50
  %61 = load i32, ptr %4, align 4, !tbaa !50
  %62 = icmp eq i32 %61, 2
  %63 = zext i1 %62 to i32
  call void @dt_image_set_monochrome_flag(i32 noundef %60, i32 noundef %63)
  br label %75

64:                                               ; preds = %51
  br label %65

65:                                               ; preds = %64
  %66 = load i32, ptr getelementptr inbounds nuw (%struct.darktable_t, ptr @darktable, i32 0, i32 2), align 8, !tbaa !85
  %67 = xor i32 %66, -1
  %68 = and i32 0, %67
  %69 = icmp ne i32 %68, 0
  br i1 %69, label %72, label %70

70:                                               ; preds = %65
  %71 = load i32, ptr %10, align 4, !tbaa !50
  call void (ptr, ...) @dt_print_ext(ptr noundef @.str.88, i32 noundef %71)
  br label %72

72:                                               ; preds = %70, %65
  br label %73

73:                                               ; preds = %72
  br label %74

74:                                               ; preds = %73
  br label %75

75:                                               ; preds = %74, %59
  %76 = load i32, ptr %6, align 4, !tbaa !50
  %77 = uitofp i32 %76 to double
  %78 = fdiv reassoc nsz arcp contract afn double 1.000000e+00, %77
  %79 = load double, ptr %8, align 8, !tbaa !61
  %80 = fadd reassoc nsz arcp contract afn double %79, %78
  store double %80, ptr %8, align 8, !tbaa !61
  %81 = load ptr, ptr %2, align 8, !tbaa !51
  %82 = load double, ptr %8, align 8, !tbaa !61
  call void @_update_progress(ptr noundef %81, double noundef %82, ptr noundef %9)
  call void @llvm.lifetime.end.p0(i64 4, ptr %10) #14
  br label %83

83:                                               ; preds = %75
  %84 = load ptr, ptr %5, align 8, !tbaa !60
  %85 = icmp ne ptr %84, null
  br i1 %85, label %86, label %90

86:                                               ; preds = %83
  %87 = load ptr, ptr %5, align 8, !tbaa !60
  %88 = getelementptr inbounds nuw %struct._GList, ptr %87, i32 0, i32 1
  %89 = load ptr, ptr %88, align 8, !tbaa !72
  br label %91

90:                                               ; preds = %83
  br label %91

91:                                               ; preds = %90, %86
  %92 = phi ptr [ %89, %86 ], [ null, %90 ]
  store ptr %92, ptr %5, align 8, !tbaa !60
  br label %41

93:                                               ; preds = %49
  %94 = load ptr, ptr getelementptr inbounds nuw (%struct.darktable_t, ptr @darktable, i32 0, i32 27), align 8, !tbaa !92
  call void @dt_undo_end_group(ptr noundef %94)
  %95 = load ptr, ptr getelementptr inbounds nuw (%struct.darktable_t, ptr @darktable, i32 0, i32 21), align 8, !tbaa !83
  %96 = load ptr, ptr %3, align 8, !tbaa !53
  %97 = getelementptr inbounds nuw %struct.dt_control_image_enumerator_t, ptr %96, i32 0, i32 0
  %98 = load ptr, ptr %97, align 8, !tbaa !57
  %99 = call ptr @g_list_copy(ptr noundef %98)
  call void @dt_collection_update_query(ptr noundef %95, i32 noundef 3, i32 noundef 43, ptr noundef %99)
  call void (...) @dt_control_queue_redraw_center()
  call void @llvm.lifetime.end.p0(i64 8, ptr %9) #14
  call void @llvm.lifetime.end.p0(i64 8, ptr %8) #14
  call void @llvm.lifetime.end.p0(i64 512, ptr %7) #14
  call void @llvm.lifetime.end.p0(i64 4, ptr %6) #14
  call void @llvm.lifetime.end.p0(i64 8, ptr %5) #14
  call void @llvm.lifetime.end.p0(i64 4, ptr %4) #14
  call void @llvm.lifetime.end.p0(i64 8, ptr %3) #14
  ret i32 0
}