; Function Attrs: nounwind uwtable
define internal noundef i32 @dt_control_monochrome_images_job_run(ptr noundef %0) #0 {
  %2 = alloca %struct.timeval, align 8
  %3 = alloca [512 x i8], align 16
  %4 = tail call ptr @dt_control_job_get_params(ptr noundef %0) #17
  %5 = getelementptr inbounds nuw i8, ptr %4, i64 8
  %6 = load i32, ptr %5, align 8, !tbaa !51
  %7 = load ptr, ptr %4, align 8, !tbaa !50
  %8 = tail call i32 @g_list_length(ptr noundef %7) #17
  call void @llvm.lifetime.start.p0(i64 512, ptr nonnull %3) #17
  call void @llvm.memset.p0.i64(ptr noundef nonnull align 16 dereferenceable(512) %3, i8 0, i64 512, i1 false)
  %9 = load ptr, ptr getelementptr inbounds nuw (i8, ptr @darktable, i64 208), align 8, !tbaa !87
  tail call void @dt_undo_start_group(ptr noundef %9, i32 noundef 256) #17
  %10 = icmp eq i32 %6, 0
  %11 = zext i32 %8 to i64
  br i1 %10, label %12, label %14

12:                                               ; preds = %1
  %13 = tail call ptr @dcngettext(ptr noundef null, ptr noundef nonnull @.str.84, ptr noundef nonnull @.str.85, i64 noundef %11, i32 noundef 5) #17
  br label %16

14:                                               ; preds = %1
  %15 = tail call ptr @dcngettext(ptr noundef null, ptr noundef nonnull @.str.86, ptr noundef nonnull @.str.87, i64 noundef %11, i32 noundef 5) #17
  br label %16

16:                                               ; preds = %14, %12
  %.sink = phi ptr [ %15, %14 ], [ %13, %12 ]
  %17 = call i32 (ptr, i64, ptr, ...) @snprintf(ptr noundef nonnull dereferenceable(1) %3, i64 noundef 512, ptr noundef %.sink, i32 noundef %8) #17
  call void @dt_control_job_set_progress_message(ptr noundef %0, ptr noundef nonnull %3) #17
  %.not28 = icmp eq ptr %7, null
  br i1 %.not28, label %.critedge, label %.lr.ph

.lr.ph:                                           ; preds = %16
  %18 = icmp eq i32 %6, 2
  %19 = zext i1 %18 to i32
  %20 = uitofp i32 %8 to double
  %21 = fdiv reassoc nsz arcp contract afn double 1.000000e+00, %20
  %22 = getelementptr inbounds nuw i8, ptr %2, i64 8
  br label %23

23:                                               ; preds = %.lr.ph, %_update_progress.exit
  %.031 = phi ptr [ %7, %.lr.ph ], [ %50, %_update_progress.exit ]
  %.02330 = phi double [ 0.000000e+00, %.lr.ph ], [ %33, %_update_progress.exit ]
  %.02629 = phi double [ 0.000000e+00, %.lr.ph ], [ %.1, %_update_progress.exit ]
  %24 = call i32 @dt_control_job_get_state(ptr noundef %0) #17
  %.not27 = icmp eq i32 %24, 4
  br i1 %.not27, label %.critedge, label %25

25:                                               ; preds = %23
  %26 = load ptr, ptr %.031, align 8, !tbaa !61
  %27 = ptrtoint ptr %26 to i64
  %28 = trunc i64 %27 to i32
  %29 = icmp sgt i32 %28, 0
  br i1 %29, label %30, label %31

30:                                               ; preds = %25
  call void @dt_image_set_monochrome_flag(i32 noundef %28, i32 noundef %19) #17
  br label %32

31:                                               ; preds = %25
  call void (ptr, ...) @dt_print_ext(ptr noundef nonnull @.str.88, i32 noundef %28) #17
  br label %32

32:                                               ; preds = %31, %30
  %33 = fadd reassoc nsz arcp contract afn double %.02330, %21
  call void @llvm.lifetime.start.p0(i64 16, ptr nonnull %2) #17
  %34 = call i32 @gettimeofday(ptr noundef nonnull %2, ptr noundef null) #17
  %35 = load i64, ptr %2, align 8, !tbaa !88
  %36 = add nsw i64 %35, -1290608000
  %37 = sitofp i64 %36 to double
  %38 = load i64, ptr %22, align 8, !tbaa !90
  %39 = sitofp i64 %38 to double
  %40 = fmul reassoc nsz arcp contract afn double %39, 0x3EB0C6F7A0B5ED8D
  %41 = fadd reassoc nsz arcp contract afn double %40, %37
  call void @llvm.lifetime.end.p0(i64 16, ptr nonnull %2) #17
  %42 = fadd reassoc nsz arcp contract afn double %.02629, 5.000000e-01
  %43 = fcmp reassoc nsz arcp contract afn ogt double %41, %42
  br i1 %43, label %44, label %_update_progress.exit

44:                                               ; preds = %32
  %45 = fcmp reassoc nsz arcp contract afn ogt double %33, 1.000000e+00
  %46 = fcmp reassoc nsz arcp contract afn olt double %33, 0.000000e+00
  %47 = select reassoc nsz arcp contract afn i1 %46, double 0.000000e+00, double %33
  %48 = select reassoc nsz arcp contract afn i1 %45, double 1.000000e+00, double %47
  call void @dt_control_job_set_progress(ptr noundef %0, double noundef %48) #17
  br label %_update_progress.exit

_update_progress.exit:                            ; preds = %32, %44
  %.1 = phi nsz double [ %41, %44 ], [ %.02629, %32 ]
  %49 = getelementptr inbounds nuw i8, ptr %.031, i64 8
  %50 = load ptr, ptr %49, align 8, !tbaa !63
  %.not = icmp eq ptr %50, null
  br i1 %.not, label %.critedge, label %23

.critedge:                                        ; preds = %23, %_update_progress.exit, %16
  %51 = load ptr, ptr getelementptr inbounds nuw (i8, ptr @darktable, i64 208), align 8, !tbaa !87
  call void @dt_undo_end_group(ptr noundef %51) #17
  %52 = load ptr, ptr getelementptr inbounds nuw (i8, ptr @darktable, i64 160), align 8, !tbaa !75
  %53 = load ptr, ptr %4, align 8, !tbaa !50
  %54 = call ptr @g_list_copy(ptr noundef %53) #17
  call void @dt_collection_update_query(ptr noundef %52, i32 noundef 3, i32 noundef 43, ptr noundef %54) #17
  call void (...) @dt_control_queue_redraw_center() #17
  call void @llvm.lifetime.end.p0(i64 512, ptr nonnull %3) #17
  ret i32 0
}